target datalayout = "e-m:e-p270:32:32-p271:32:32-p272:64:64-i64:64-i128:128-f80:128-n8:16:32:64-S128"
target triple = "x86_64-pc-linux-gnu"

%"struct.duckdb_zstd::ZSTD_customMem" = type { ptr, ptr, ptr }
%"struct.duckdb_zstd::ZSTD_frameParameters" = type { i32, i32, i32 }
%"struct.duckdb_zstd::ZSTD_compressionParameters" = type { i32, i32, i32, i32, i32, i32, i32 }
%"struct.duckdb_zstd::ZSTD_CCtx_params_s" = type { i32, %"struct.duckdb_zstd::ZSTD_compressionParameters", %"struct.duckdb_zstd::ZSTD_frameParameters", i32, i32, i64, i32, i32, i32, i32, i64, i32, i32, %"struct.duckdb_zstd::ldmParams_t", i32, i32, i32, i32, i32, i32, i32, i32, %"struct.duckdb_zstd::ZSTD_customMem", i32, i32, ptr, ptr, i64, i32 }
%"struct.duckdb_zstd::ldmParams_t" = type { i32, i32, i32, i32, i32, i32 }

; Function Attrs: mustprogress nounwind uwtable
define internal noundef i32 @_ZN11duckdb_zstdL33ZSTD_resolveExternalRepcodeSearchENS_18ZSTD_paramSwitch_eEi(i32 noundef %0, i32 noundef %1) #0 {
  %3 = alloca i32, align 4
  %4 = alloca i32, align 4
  %5 = alloca i32, align 4
  store i32 %0, ptr %4, align 4, !tbaa !137
  store i32 %1, ptr %5, align 4, !tbaa !79
  %6 = load i32, ptr %4, align 4, !tbaa !137
  %7 = icmp ne i32 %6, 0
  br i1 %7, label %8, label %10

8:                                                ; preds = %2
  %9 = load i32, ptr %4, align 4, !tbaa !137
  store i32 %9, ptr %3, align 4
  br label %15

10:                                               ; preds = %2
  %11 = load i32, ptr %5, align 4, !tbaa !79
  %12 = icmp slt i32 %11, 10
  br i1 %12, label %13, label %14

13:                                               ; preds = %10
  store i32 2, ptr %3, align 4
  br label %15

14:                                               ; preds = %10
  store i32 1, ptr %3, align 4
  br label %15

15:                                               ; preds = %14, %13, %8
  %16 = load i32, ptr %3, align 4
  ret i32 %16
}

; Function Attrs: mustprogress nounwind uwtable
define internal noundef i64 @_ZN11duckdb_zstdL24ZSTD_resolveMaxBlockSizeEm(i64 noundef %0) #0 {
  %2 = alloca i64, align 8
  %3 = alloca i64, align 8
  store i64 %0, ptr %3, align 8, !tbaa !3
  %4 = load i64, ptr %3, align 8, !tbaa !3
  %5 = icmp eq i64 %4, 0
  br i1 %5, label %6, label %7

6:                                                ; preds = %1
  store i64 131072, ptr %2, align 8
  br label %9

7:                                                ; preds = %1
  %8 = load i64, ptr %3, align 8, !tbaa !3
  store i64 %8, ptr %2, align 8
  br label %9

9:                                                ; preds = %7, %6
  %10 = load i64, ptr %2, align 8
  ret i64 %10
}

; Function Attrs: mustprogress nounwind uwtable
define internal noundef i32 @_ZN11duckdb_zstdL38ZSTD_resolveExternalSequenceValidationEi(i32 noundef %0) #0 {
  %2 = alloca i32, align 4
  store i32 %0, ptr %2, align 4, !tbaa !79
  %3 = load i32, ptr %2, align 4, !tbaa !79
  ret i32 %3
}

; Function Attrs: mustprogress uwtable
define internal noundef i32 @_ZN11duckdb_zstdL30ZSTD_resolveRowMatchFinderModeENS_18ZSTD_paramSwitch_eEPKNS_26ZSTD_compressionParametersE(i32 noundef %0, ptr noundef %1) #2 {
  %3 = alloca i32, align 4
  %4 = alloca i32, align 4
  %5 = alloca ptr, align 8
  %6 = alloca i32, align 4
  %7 = alloca i32, align 4
  store i32 %0, ptr %4, align 4, !tbaa !137
  store ptr %1, ptr %5, align 8, !tbaa !8
  call void @llvm.lifetime.start.p0(i64 4, ptr %6) #16
  store i32 1, ptr %6, align 4, !tbaa !79
  %8 = load i32, ptr %4, align 4, !tbaa !137
  %9 = icmp ne i32 %8, 0
  br i1 %9, label %10, label %12

10:                                               ; preds = %2
  %11 = load i32, ptr %4, align 4, !tbaa !137
  store i32 %11, ptr %3, align 4
  store i32 1, ptr %7, align 4
  br label %28

12:                                               ; preds = %2
  store i32 2, ptr %4, align 4, !tbaa !137
  %13 = load ptr, ptr %5, align 8, !tbaa !8
  %14 = getelementptr inbounds nuw %"struct.duckdb_zstd::ZSTD_compressionParameters", ptr %13, i32 0, i32 6
  %15 = load i32, ptr %14, align 4, !tbaa !108
  %16 = call noundef i32 @_ZN11duckdb_zstdL28ZSTD_rowMatchFinderSupportedENS_13ZSTD_strategyE(i32 noundef %15)
  %17 = icmp ne i32 %16, 0
  br i1 %17, label %20, label %18

18:                                               ; preds = %12
  %19 = load i32, ptr %4, align 4, !tbaa !137
  store i32 %19, ptr %3, align 4
  store i32 1, ptr %7, align 4
  br label %28

20:                                               ; preds = %12
  %21 = load ptr, ptr %5, align 8, !tbaa !8
  %22 = getelementptr inbounds nuw %"struct.duckdb_zstd::ZSTD_compressionParameters", ptr %21, i32 0, i32 0
  %23 = load i32, ptr %22, align 4, !tbaa !102
  %24 = icmp ugt i32 %23, 14
  br i1 %24, label %25, label %26

25:                                               ; preds = %20
  store i32 1, ptr %4, align 4, !tbaa !137
  br label %26

26:                                               ; preds = %25, %20
  %27 = load i32, ptr %4, align 4, !tbaa !137
  store i32 %27, ptr %3, align 4
  store i32 1, ptr %7, align 4
  br label %28

28:                                               ; preds = %26, %18, %10
  call void @llvm.lifetime.end.p0(i64 4, ptr %6) #16
  %29 = load i32, ptr %3, align 4
  ret i32 %29
}

; Function Attrs: mustprogress nounwind uwtable
define internal noundef i32 @_ZN11duckdb_zstdL29ZSTD_resolveBlockSplitterModeENS_18ZSTD_paramSwitch_eEPKNS_26ZSTD_compressionParametersE(i32 noundef %0, ptr noundef %1) #0 {
  %3 = alloca i32, align 4
  %4 = alloca i32, align 4
  %5 = alloca ptr, align 8
  store i32 %0, ptr %4, align 4, !tbaa !137
  store ptr %1, ptr %5, align 8, !tbaa !8
  %6 = load i32, ptr %4, align 4, !tbaa !137
  %7 = icmp ne i32 %6, 0
  br i1 %7, label %8, label %10

8:                                                ; preds = %2
  %9 = load i32, ptr %4, align 4, !tbaa !137
  store i32 %9, ptr %3, align 4
  br label %23

10:                                               ; preds = %2
  %11 = load ptr, ptr %5, align 8, !tbaa !8
  %12 = getelementptr inbounds nuw %"struct.duckdb_zstd::ZSTD_compressionParameters", ptr %11, i32 0, i32 6
  %13 = load i32, ptr %12, align 4, !tbaa !108
  %14 = icmp sge i32 %13, 7
  br i1 %14, label %15, label %20

15:                                               ; preds = %10
  %16 = load ptr, ptr %5, align 8, !tbaa !8
  %17 = getelementptr inbounds nuw %"struct.duckdb_zstd::ZSTD_compressionParameters", ptr %16, i32 0, i32 0
  %18 = load i32, ptr %17, align 4, !tbaa !102
  %19 = icmp uge i32 %18, 17
  br label %20

20:                                               ; preds = %15, %10
  %21 = phi i1 [ false, %10 ], [ %19, %15 ]
  %22 = select i1 %21, i32 1, i32 2
  store i32 %22, ptr %3, align 4
  br label %23

23:                                               ; preds = %20, %8
  %24 = load i32, ptr %3, align 4
  ret i32 %24
}

; Function Attrs: mustprogress nounwind uwtable
define internal noundef i32 @_ZN11duckdb_zstdL21ZSTD_resolveEnableLdmENS_18ZSTD_paramSwitch_eEPKNS_26ZSTD_compressionParametersE(i32 noundef %0, ptr noundef %1) #0 {
  %3 = alloca i32, align 4
  %4 = alloca i32, align 4
  %5 = alloca ptr, align 8
  store i32 %0, ptr %4, align 4, !tbaa !137
  store ptr %1, ptr %5, align 8, !tbaa !8
  %6 = load i32, ptr %4, align 4, !tbaa !137
  %7 = icmp ne i32 %6, 0
  br i1 %7, label %8, label %10

8:                                                ; preds = %2
  %9 = load i32, ptr %4, align 4, !tbaa !137
  store i32 %9, ptr %3, align 4
  br label %23

10:                                               ; preds = %2
  %11 = load ptr, ptr %5, align 8, !tbaa !8
  %12 = getelementptr inbounds nuw %"struct.duckdb_zstd::ZSTD_compressionParameters", ptr %11, i32 0, i32 6
  %13 = load i32, ptr %12, align 4, !tbaa !108
  %14 = icmp sge i32 %13, 7
  br i1 %14, label %15, label %20

15:                                               ; preds = %10
  %16 = load ptr, ptr %5, align 8, !tbaa !8
  %17 = getelementptr inbounds nuw %"struct.duckdb_zstd::ZSTD_compressionParameters", ptr %16, i32 0, i32 0
  %18 = load i32, ptr %17, align 4, !tbaa !102
  %19 = icmp uge i32 %18, 27
  br label %20

20:                                               ; preds = %15, %10
  %21 = phi i1 [ false, %10 ], [ %19, %15 ]
  %22 = select i1 %21, i32 1, i32 2
  store i32 %22, ptr %3, align 4
  br label %23

23:                                               ; preds = %20, %8
  %24 = load i32, ptr %3, align 4
  ret i32 %24
}

; Function Attrs: mustprogress nounwind uwtable
define noundef i64 @_ZN11duckdb_zstd20ZSTD_CCtxParams_initEPNS_18ZSTD_CCtx_params_sEi(ptr noundef %0, i32 noundef %1) #0 {
  %3 = alloca i64, align 8
  %4 = alloca ptr, align 8
  %5 = alloca i32, align 4
  store ptr %0, ptr %4, align 8, !tbaa !96
  store i32 %1, ptr %5, align 4, !tbaa !79
  br label %6

6:                                                ; preds = %2
  %7 = load ptr, ptr %4, align 8, !tbaa !96
  %8 = icmp ne ptr %7, null
  br i1 %8, label %18, label %9

9:                                                ; preds = %6
  br label %10

10:                                               ; preds = %9
  br label %11

11:                                               ; preds = %10
  br label %12

12:                                               ; preds = %11
  br label %13

13:                                               ; preds = %12
  br label %14

14:                                               ; preds = %13
  br label %15

15:                                               ; preds = %14
  br label %16

16:                                               ; preds = %15
  br label %17

17:                                               ; preds = %16
  store i64 -1, ptr %3, align 8
  br label %27

18:                                               ; preds = %6
  br label %19

19:                                               ; preds = %18
  %20 = load ptr, ptr %4, align 8, !tbaa !96
  call void @llvm.memset.p0.i64(ptr align 8 %20, i8 0, i64 216, i1 false)
  %21 = load i32, ptr %5, align 4, !tbaa !79
  %22 = load ptr, ptr %4, align 8, !tbaa !96
  %23 = getelementptr inbounds nuw %"struct.duckdb_zstd::ZSTD_CCtx_params_s", ptr %22, i32 0, i32 3
  store i32 %21, ptr %23, align 4, !tbaa !98
  %24 = load ptr, ptr %4, align 8, !tbaa !96
  %25 = getelementptr inbounds nuw %"struct.duckdb_zstd::ZSTD_CCtx_params_s", ptr %24, i32 0, i32 2
  %26 = getelementptr inbounds nuw %"struct.duckdb_zstd::ZSTD_frameParameters", ptr %25, i32 0, i32 0
  store i32 1, ptr %26, align 8, !tbaa !99
  store i64 0, ptr %3, align 8
  br label %27

27:                                               ; preds = %19, %17
  %28 = load i64, ptr %3, align 8
  ret i64 %28
}

; Function Attrs: mustprogress nounwind uwtable
define internal noundef i32 @_ZN11duckdb_zstdL28ZSTD_rowMatchFinderSupportedENS_13ZSTD_strategyE(i32 noundef %0) #0 {
  %2 = alloca i32, align 4
  store i32 %0, ptr %2, align 4, !tbaa !101
  %3 = load i32, ptr %2, align 4, !tbaa !101
  %4 = icmp sge i32 %3, 3
  br i1 %4, label %5, label %8

5:                                                ; preds = %1
  %6 = load i32, ptr %2, align 4, !tbaa !101
  %7 = icmp sle i32 %6, 5
  br label %8

8:                                                ; preds = %5, %1
  %9 = phi i1 [ false, %1 ], [ %7, %5 ]
  %10 = zext i1 %9 to i32
  ret i32 %10
}

; Function Attrs: mustprogress uwtable
define internal void @_ZN11duckdb_zstdL30ZSTD_makeCCtxParamsFromCParamsENS_26ZSTD_compressionParametersE(ptr dead_on_unwind noalias writable sret(%"struct.duckdb_zstd::ZSTD_CCtx_params_s") align 8 %0, ptr noundef byval(%"struct.duckdb_zstd::ZSTD_compressionParameters") align 8 %1) #2 {
  %3 = call noundef i64 @_ZN11duckdb_zstd20ZSTD_CCtxParams_initEPNS_18ZSTD_CCtx_params_sEi(ptr noundef %0, i32 noundef 3)
  %4 = getelementptr inbounds nuw %"struct.duckdb_zstd::ZSTD_CCtx_params_s", ptr %0, i32 0, i32 1
  call void @llvm.memcpy.p0.p0.i64(ptr align 4 %4, ptr align 8 %1, i64 28, i1 false), !tbaa.struct !100
  %5 = getelementptr inbounds nuw %"struct.duckdb_zstd::ZSTD_CCtx_params_s", ptr %0, i32 0, i32 13
  %6 = getelementptr inbounds nuw %"struct.duckdb_zstd::ldmParams_t", ptr %5, i32 0, i32 0
  %7 = load i32, ptr %6, align 8, !tbaa !112
  %8 = call noundef i32 @_ZN11duckdb_zstdL21ZSTD_resolveEnableLdmENS_18ZSTD_paramSwitch_eEPKNS_26ZSTD_compressionParametersE(i32 noundef %7, ptr noundef %1)
  %9 = getelementptr inbounds nuw %"struct.duckdb_zstd::ZSTD_CCtx_params_s", ptr %0, i32 0, i32 13
  %10 = getelementptr inbounds nuw %"struct.duckdb_zstd::ldmParams_t", ptr %9, i32 0, i32 0
  store i32 %8, ptr %10, align 8, !tbaa !112
  %11 = getelementptr inbounds nuw %"struct.duckdb_zstd::ZSTD_CCtx_params_s", ptr %0, i32 0, i32 13
  %12 = getelementptr inbounds nuw %"struct.duckdb_zstd::ldmParams_t", ptr %11, i32 0, i32 0
  %13 = load i32, ptr %12, align 8, !tbaa !112
  %14 = icmp eq i32 %13, 1
  br i1 %14, label %15, label %17

15:                                               ; preds = %2
  %16 = getelementptr inbounds nuw %"struct.duckdb_zstd::ZSTD_CCtx_params_s", ptr %0, i32 0, i32 13
  call void @_ZN11duckdb_zstd25ZSTD_ldm_adjustParametersEPNS_11ldmParams_tEPKNS_26ZSTD_compressionParametersE(ptr noundef %16, ptr noundef %1)
  br label %17

17:                                               ; preds = %15, %2
  %18 = getelementptr inbounds nuw %"struct.duckdb_zstd::ZSTD_CCtx_params_s", ptr %0, i32 0, i32 19
  %19 = load i32, ptr %18, align 4, !tbaa !111
  %20 = call noundef i32 @_ZN11duckdb_zstdL29ZSTD_resolveBlockSplitterModeENS_18ZSTD_paramSwitch_eEPKNS_26ZSTD_compressionParametersE(i32 noundef %19, ptr noundef %1)
  %21 = getelementptr inbounds nuw %"struct.duckdb_zstd::ZSTD_CCtx_params_s", ptr %0, i32 0, i32 19
  store i32 %20, ptr %21, align 4, !tbaa !111
  %22 = getelementptr inbounds nuw %"struct.duckdb_zstd::ZSTD_CCtx_params_s", ptr %0, i32 0, i32 20
  %23 = load i32, ptr %22, align 8, !tbaa !110
  %24 = call noundef i32 @_ZN11duckdb_zstdL30ZSTD_resolveRowMatchFinderModeENS_18ZSTD_paramSwitch_eEPKNS_26ZSTD_compressionParametersE(i32 noundef %23, ptr noundef %1)
  %25 = getelementptr inbounds nuw %"struct.duckdb_zstd::ZSTD_CCtx_params_s", ptr %0, i32 0, i32 20
  store i32 %24, ptr %25, align 8, !tbaa !110
  %26 = getelementptr inbounds nuw %"struct.duckdb_zstd::ZSTD_CCtx_params_s", ptr %0, i32 0, i32 18
  %27 = load i32, ptr %26, align 8, !tbaa !113
  %28 = call noundef i32 @_ZN11duckdb_zstdL38ZSTD_resolveExternalSequenceValidationEi(i32 noundef %27)
  %29 = getelementptr inbounds nuw %"struct.duckdb_zstd::ZSTD_CCtx_params_s", ptr %0, i32 0, i32 18
  store i32 %28, ptr %29, align 8, !tbaa !113
  %30 = getelementptr inbounds nuw %"struct.duckdb_zstd::ZSTD_CCtx_params_s", ptr %0, i32 0, i32 27
  %31 = load i64, ptr %30, align 8, !tbaa !114
  %32 = call noundef i64 @_ZN11duckdb_zstdL24ZSTD_resolveMaxBlockSizeEm(i64 noundef %31)
  %33 = getelementptr inbounds nuw %"struct.duckdb_zstd::ZSTD_CCtx_params_s", ptr %0, i32 0, i32 27
  store i64 %32, ptr %33, align 8, !tbaa !114
  %34 = getelementptr inbounds nuw %"struct.duckdb_zstd::ZSTD_CCtx_params_s", ptr %0, i32 0, i32 28
  %35 = load i32, ptr %34, align 8, !tbaa !115
  %36 = getelementptr inbounds nuw %"struct.duckdb_zstd::ZSTD_CCtx_params_s", ptr %0, i32 0, i32 3
  %37 = load i32, ptr %36, align 4, !tbaa !98
  %38 = call noundef i32 @_ZN11duckdb_zstdL33ZSTD_resolveExternalRepcodeSearchENS_18ZSTD_paramSwitch_eEi(i32 noundef %35, i32 noundef %37)
  %39 = getelementptr inbounds nuw %"struct.duckdb_zstd::ZSTD_CCtx_params_s", ptr %0, i32 0, i32 28
  store i32 %38, ptr %39, align 8, !tbaa !115
  ret void
}

; Function Attrs: mustprogress uwtable
define noundef i64 @_ZN11duckdb_zstd37ZSTD_estimateCStreamSize_usingCParamsENS_26ZSTD_compressionParametersE(ptr noundef byval(%"struct.duckdb_zstd::ZSTD_compressionParameters") align 8 %0) #2 {
  %2 = alloca i64, align 8
  %3 = alloca %"struct.duckdb_zstd::ZSTD_CCtx_params_s", align 8
  %4 = alloca %"struct.duckdb_zstd::ZSTD_compressionParameters", align 8
  %5 = alloca i64, align 8
  %6 = alloca i64, align 8
  %7 = alloca i32, align 4
  call void @llvm.lifetime.start.p0(i64 216, ptr %3) #16
  call void @llvm.memcpy.p0.p0.i64(ptr align 4 %4, ptr align 8 %0, i64 28, i1 false), !tbaa.struct !100
  call void @_ZN11duckdb_zstdL30ZSTD_makeCCtxParamsFromCParamsENS_26ZSTD_compressionParametersE(ptr dead_on_unwind writable sret(%"struct.duckdb_zstd::ZSTD_CCtx_params_s") align 8 %3, ptr noundef byval(%"struct.duckdb_zstd::ZSTD_compressionParameters") align 8 %4)
  %8 = getelementptr inbounds nuw %"struct.duckdb_zstd::ZSTD_compressionParameters", ptr %0, i32 0, i32 6
  %9 = load i32, ptr %8, align 8, !tbaa !108
  %10 = call noundef i32 @_ZN11duckdb_zstdL28ZSTD_rowMatchFinderSupportedENS_13ZSTD_strategyE(i32 noundef %9)
  %11 = icmp ne i32 %10, 0
  br i1 %11, label %12, label %26

12:                                               ; preds = %1
  call void @llvm.lifetime.start.p0(i64 8, ptr %5) #16
  call void @llvm.lifetime.start.p0(i64 8, ptr %6) #16
  %13 = getelementptr inbounds nuw %"struct.duckdb_zstd::ZSTD_CCtx_params_s", ptr %3, i32 0, i32 20
  store i32 2, ptr %13, align 8, !tbaa !110
  %14 = call noundef i64 @_ZN11duckdb_zstd40ZSTD_estimateCStreamSize_usingCCtxParamsEPKNS_18ZSTD_CCtx_params_sE(ptr noundef %3)
  store i64 %14, ptr %5, align 8, !tbaa !3
  %15 = getelementptr inbounds nuw %"struct.duckdb_zstd::ZSTD_CCtx_params_s", ptr %3, i32 0, i32 20
  store i32 1, ptr %15, align 8, !tbaa !110
  %16 = call noundef i64 @_ZN11duckdb_zstd40ZSTD_estimateCStreamSize_usingCCtxParamsEPKNS_18ZSTD_CCtx_params_sE(ptr noundef %3)
  store i64 %16, ptr %6, align 8, !tbaa !3
  %17 = load i64, ptr %5, align 8, !tbaa !3
  %18 = load i64, ptr %6, align 8, !tbaa !3
  %19 = icmp ugt i64 %17, %18
  br i1 %19, label %20, label %22

20:                                               ; preds = %12
  %21 = load i64, ptr %5, align 8, !tbaa !3
  br label %24

22:                                               ; preds = %12
  %23 = load i64, ptr %6, align 8, !tbaa !3
  br label %24

24:                                               ; preds = %22, %20
  %25 = phi i64 [ %21, %20 ], [ %23, %22 ]
  store i64 %25, ptr %2, align 8
  store i32 1, ptr %7, align 4
  call void @llvm.lifetime.end.p0(i64 8, ptr %6) #16
  call void @llvm.lifetime.end.p0(i64 8, ptr %5) #16
  br label %28

26:                                               ; preds = %1
  %27 = call noundef i64 @_ZN11duckdb_zstd40ZSTD_estimateCStreamSize_usingCCtxParamsEPKNS_18ZSTD_CCtx_params_sE(ptr noundef %3)
  store i64 %27, ptr %2, align 8
  store i32 1, ptr %7, align 4
  br label %28

28:                                               ; preds = %26, %24
  call void @llvm.lifetime.end.p0(i64 216, ptr %3) #16
  %29 = load i64, ptr %2, align 8
  ret i64 %29
}