; Function Attrs: mustprogress uwtable
define noundef i64 @_ZN11duckdb_zstd37ZSTD_estimateCStreamSize_usingCParamsENS_26ZSTD_compressionParametersE(ptr noundef readonly byval(%"struct.duckdb_zstd::ZSTD_compressionParameters") align 8 captures(none) %0) local_unnamed_addr #2 {
  %2 = alloca %"struct.duckdb_zstd::ZSTD_compressionParameters", align 8
  %3 = alloca %"struct.duckdb_zstd::ZSTD_CCtx_params_s", align 8
  call void @llvm.lifetime.start.p0(i64 216, ptr nonnull %3) #28
  call void @llvm.lifetime.start.p0(i64 28, ptr nonnull %2)
  call void @llvm.memcpy.p0.p0.i64(ptr noundef nonnull align 8 dereferenceable(28) %2, ptr noundef nonnull align 8 dereferenceable(28) %0, i64 28, i1 false)
  tail call void @llvm.experimental.noalias.scope.decl(metadata !160)
  call void @llvm.memset.p0.i64(ptr noundef nonnull align 8 dereferenceable(216) %3, i8 0, i64 216, i1 false), !alias.scope !160
  %4 = getelementptr inbounds nuw i8, ptr %3, i64 44
  store i32 3, ptr %4, align 4, !tbaa !57, !alias.scope !160
  %5 = getelementptr inbounds nuw i8, ptr %3, i64 32
  store i32 1, ptr %5, align 8, !tbaa !58, !alias.scope !160
  %6 = getelementptr inbounds nuw i8, ptr %3, i64 4
  call void @llvm.memcpy.p0.p0.i64(ptr noundef nonnull align 4 dereferenceable(28) %6, ptr noundef nonnull align 8 dereferenceable(28) %0, i64 28, i1 false)
  %7 = getelementptr inbounds nuw i8, ptr %3, i64 96
  %8 = getelementptr inbounds nuw i8, ptr %2, i64 24
  %9 = load i32, ptr %8, align 8, !tbaa !98, !noalias !160
  %10 = icmp sgt i32 %9, 6
  %11 = load i32, ptr %2, align 8, !noalias !160
  %12 = icmp ugt i32 %11, 26
  %or.cond.i = select i1 %10, i1 %12, i1 false
  br i1 %or.cond.i, label %14, label %.thread.i

.thread.i:                                        ; preds = %1
  store i32 2, ptr %7, align 8, !tbaa !90, !alias.scope !160
  %13 = getelementptr inbounds nuw i8, ptr %3, i64 140
  br label %15

14:                                               ; preds = %1
  store i32 1, ptr %7, align 8, !tbaa !90, !alias.scope !160
  call void @_ZN11duckdb_zstd25ZSTD_ldm_adjustParametersEPNS_11ldmParams_tEPKNS_26ZSTD_compressionParametersE(ptr noundef nonnull %7, ptr noundef nonnull align 8 %2)
  %.phi.trans.insert.i = getelementptr inbounds nuw i8, ptr %3, i64 140
  %.pre.i = load i32, ptr %.phi.trans.insert.i, align 4, !tbaa !89, !alias.scope !160
  %.not.i1.i = icmp eq i32 %.pre.i, 0
  br i1 %.not.i1.i, label %._crit_edge, label %_ZN11duckdb_zstdL29ZSTD_resolveBlockSplitterModeENS_18ZSTD_paramSwitch_eEPKNS_26ZSTD_compressionParametersE.exit.i

._crit_edge:                                      ; preds = %14
  %.pre = load i32, ptr %8, align 8, !tbaa !98, !noalias !160
  br label %15

15:                                               ; preds = %._crit_edge, %.thread.i
  %16 = phi i32 [ %9, %.thread.i ], [ %.pre, %._crit_edge ]
  %17 = phi ptr [ %13, %.thread.i ], [ %.phi.trans.insert.i, %._crit_edge ]
  %18 = icmp sgt i32 %16, 6
  br i1 %18, label %19, label %_ZN11duckdb_zstdL29ZSTD_resolveBlockSplitterModeENS_18ZSTD_paramSwitch_eEPKNS_26ZSTD_compressionParametersE.exit.i

19:                                               ; preds = %15
  %20 = load i32, ptr %2, align 8, !tbaa !93, !noalias !160
  %21 = icmp ugt i32 %20, 16
  %22 = select i1 %21, i32 1, i32 2
  br label %_ZN11duckdb_zstdL29ZSTD_resolveBlockSplitterModeENS_18ZSTD_paramSwitch_eEPKNS_26ZSTD_compressionParametersE.exit.i

_ZN11duckdb_zstdL29ZSTD_resolveBlockSplitterModeENS_18ZSTD_paramSwitch_eEPKNS_26ZSTD_compressionParametersE.exit.i: ; preds = %19, %15, %14
  %23 = phi ptr [ %.phi.trans.insert.i, %14 ], [ %17, %15 ], [ %17, %19 ]
  %.0.i2.i = phi i32 [ %.pre.i, %14 ], [ 2, %15 ], [ %22, %19 ]
  store i32 %.0.i2.i, ptr %23, align 4, !tbaa !89, !alias.scope !160
  %24 = getelementptr inbounds nuw i8, ptr %3, i64 144
  %25 = load i32, ptr %24, align 8, !tbaa !88, !alias.scope !160
  %.not.i3.i = icmp eq i32 %25, 0
  br i1 %.not.i3.i, label %26, label %_ZN11duckdb_zstdL30ZSTD_makeCCtxParamsFromCParamsENS_26ZSTD_compressionParametersE.exit

26:                                               ; preds = %_ZN11duckdb_zstdL29ZSTD_resolveBlockSplitterModeENS_18ZSTD_paramSwitch_eEPKNS_26ZSTD_compressionParametersE.exit.i
  %27 = load i32, ptr %8, align 8, !tbaa !98, !noalias !160
  %28 = add i32 %27, -6
  %29 = icmp ult i32 %28, -3
  br i1 %29, label %_ZN11duckdb_zstdL30ZSTD_makeCCtxParamsFromCParamsENS_26ZSTD_compressionParametersE.exit, label %30

30:                                               ; preds = %26
  %31 = load i32, ptr %2, align 8, !tbaa !93, !noalias !160
  %32 = icmp ugt i32 %31, 14
  %spec.select.i.i = select i1 %32, i32 1, i32 2
  br label %_ZN11duckdb_zstdL30ZSTD_makeCCtxParamsFromCParamsENS_26ZSTD_compressionParametersE.exit

_ZN11duckdb_zstdL30ZSTD_makeCCtxParamsFromCParamsENS_26ZSTD_compressionParametersE.exit: ; preds = %_ZN11duckdb_zstdL29ZSTD_resolveBlockSplitterModeENS_18ZSTD_paramSwitch_eEPKNS_26ZSTD_compressionParametersE.exit.i, %26, %30
  %.0.i4.i = phi i32 [ %spec.select.i.i, %30 ], [ %25, %_ZN11duckdb_zstdL29ZSTD_resolveBlockSplitterModeENS_18ZSTD_paramSwitch_eEPKNS_26ZSTD_compressionParametersE.exit.i ], [ 2, %26 ]
  store i32 %.0.i4.i, ptr %24, align 8, !tbaa !88, !alias.scope !160
  %33 = getelementptr inbounds nuw i8, ptr %3, i64 200
  %34 = load i64, ptr %33, align 8, !tbaa !91, !alias.scope !160
  %35 = icmp eq i64 %34, 0
  %..i.i = select i1 %35, i64 131072, i64 %34
  store i64 %..i.i, ptr %33, align 8, !tbaa !91, !alias.scope !160
  %36 = getelementptr inbounds nuw i8, ptr %3, i64 208
  %37 = load i32, ptr %36, align 8, !tbaa !92, !alias.scope !160
  %38 = load i32, ptr %4, align 4, !tbaa !57, !alias.scope !160
  %.not.i5.i = icmp eq i32 %37, 0
  %39 = icmp slt i32 %38, 10
  %..i6.i = select i1 %39, i32 2, i32 1
  %.0.i7.i = select i1 %.not.i5.i, i32 %..i6.i, i32 %37
  store i32 %.0.i7.i, ptr %36, align 8, !tbaa !92, !alias.scope !160
  call void @llvm.lifetime.end.p0(i64 28, ptr nonnull %2)
  %40 = getelementptr inbounds nuw i8, ptr %0, i64 24
  %41 = load i32, ptr %40, align 8, !tbaa !98
  %42 = add i32 %41, -6
  %43 = icmp ult i32 %42, -3
  br i1 %43, label %48, label %44

44:                                               ; preds = %_ZN11duckdb_zstdL30ZSTD_makeCCtxParamsFromCParamsENS_26ZSTD_compressionParametersE.exit
  store i32 2, ptr %24, align 8, !tbaa !88
  %45 = call noundef i64 @_ZN11duckdb_zstd40ZSTD_estimateCStreamSize_usingCCtxParamsEPKNS_18ZSTD_CCtx_params_sE(ptr noundef nonnull %3)
  store i32 1, ptr %24, align 8, !tbaa !88
  %46 = call noundef i64 @_ZN11duckdb_zstd40ZSTD_estimateCStreamSize_usingCCtxParamsEPKNS_18ZSTD_CCtx_params_sE(ptr noundef nonnull %3)
  %47 = call i64 @llvm.umax.i64(i64 %45, i64 %46)
  br label %50

48:                                               ; preds = %_ZN11duckdb_zstdL30ZSTD_makeCCtxParamsFromCParamsENS_26ZSTD_compressionParametersE.exit
  %49 = call noundef i64 @_ZN11duckdb_zstd40ZSTD_estimateCStreamSize_usingCCtxParamsEPKNS_18ZSTD_CCtx_params_sE(ptr noundef nonnull %3)
  br label %50

50:                                               ; preds = %48, %44
  %.0 = phi i64 [ %47, %44 ], [ %49, %48 ]
  call void @llvm.lifetime.end.p0(i64 216, ptr nonnull %3) #28
  ret i64 %.0
}